target datalayout = "e-m:e-p270:32:32-p271:32:32-p272:64:64-i64:64-i128:128-f80:128-n8:16:32:64-S128"
target triple = "x86_64-pc-linux-gnu"

%struct.lex_context = type { i16, [2 x i8] }
%struct.parser_params = type { ptr, ptr, %struct.anon.12, i64, i64, i32, i32, i32, i32, i32, ptr, ptr, ptr, ptr, i32, i32, ptr, i64, ptr, ptr, ptr, ptr, i64, i64, %struct.anon.13, ptr, i32, ptr, i32, i64, %struct.lex_context, ptr, ptr, ptr, i32, i64, ptr, ptr, i32, ptr }
%struct.anon.12 = type { ptr, ptr, ptr, %struct.parser_string_buffer, ptr, ptr, ptr, ptr, ptr, ptr, i32, i32, i32, i32 }
%struct.parser_string_buffer = type { ptr, ptr }
%struct.anon.13 = type { ptr, i32, i32, i32, i32 }
%struct.local_vars = type { ptr, ptr, ptr, ptr, %struct.anon.16, ptr }
%struct.anon.16 = type { ptr, ptr, ptr }
%struct.vtable = type { ptr, i32, i32, ptr }

@.str.931 = private unnamed_addr constant [21 x i8] c"vtable_alloc:%d: %p\0A\00", align 1

; Function Attrs: nounwind sspstrong uwtable
define internal ptr @vtable_alloc_gen(ptr noundef %0, i32 noundef %1, ptr noundef %2) #0 {
  %4 = alloca ptr, align 8
  %5 = alloca i32, align 4
  %6 = alloca ptr, align 8
  %7 = alloca ptr, align 8
  store ptr %0, ptr %4, align 8, !tbaa !7
  store i32 %1, ptr %5, align 4, !tbaa !34
  store ptr %2, ptr %6, align 8, !tbaa !346
  call void @llvm.lifetime.start.p0(i64 8, ptr %7) #26
  %8 = call noalias nonnull ptr @ruby_xmalloc(i64 noundef 24) #31
  store ptr %8, ptr %7, align 8, !tbaa !346
  %9 = load ptr, ptr %7, align 8, !tbaa !346
  %10 = getelementptr inbounds nuw %struct.vtable, ptr %9, i32 0, i32 1
  store i32 0, ptr %10, align 8, !tbaa !419
  %11 = load ptr, ptr %7, align 8, !tbaa !346
  %12 = getelementptr inbounds nuw %struct.vtable, ptr %11, i32 0, i32 2
  store i32 8, ptr %12, align 4, !tbaa !573
  %13 = load ptr, ptr %7, align 8, !tbaa !346
  %14 = getelementptr inbounds nuw %struct.vtable, ptr %13, i32 0, i32 2
  %15 = load i32, ptr %14, align 4, !tbaa !573
  %16 = sext i32 %15 to i64
  %17 = call noalias nonnull ptr @ruby_xmalloc2(i64 noundef %16, i64 noundef 8) #33
  %18 = load ptr, ptr %7, align 8, !tbaa !346
  %19 = getelementptr inbounds nuw %struct.vtable, ptr %18, i32 0, i32 0
  store ptr %17, ptr %19, align 8, !tbaa !418
  %20 = load ptr, ptr %6, align 8, !tbaa !346
  %21 = load ptr, ptr %7, align 8, !tbaa !346
  %22 = getelementptr inbounds nuw %struct.vtable, ptr %21, i32 0, i32 3
  store ptr %20, ptr %22, align 8, !tbaa !347
  %23 = load ptr, ptr %4, align 8, !tbaa !7
  %24 = getelementptr inbounds nuw %struct.parser_params, ptr %23, i32 0, i32 34
  %25 = load i32, ptr %24, align 8
  %26 = lshr i32 %25, 5
  %27 = and i32 %26, 1
  %28 = icmp ne i32 %27, 0
  br i1 %28, label %29, label %33

29:                                               ; preds = %3
  %30 = load ptr, ptr %4, align 8, !tbaa !7
  %31 = load i32, ptr %5, align 4, !tbaa !34
  %32 = load ptr, ptr %7, align 8, !tbaa !346
  call void (ptr, ptr, ...) @rb_parser_printf(ptr noundef %30, ptr noundef @.str.931, i32 noundef %31, ptr noundef %32)
  br label %33

33:                                               ; preds = %29, %3
  %34 = load ptr, ptr %7, align 8, !tbaa !346
  call void @llvm.lifetime.end.p0(i64 8, ptr %7) #26
  ret ptr %34
}

; Function Attrs: nounwind sspstrong uwtable
define internal ptr @dyna_push(ptr noundef %0) #0 {
  %2 = alloca ptr, align 8
  store ptr %0, ptr %2, align 8, !tbaa !7
  %3 = load ptr, ptr %2, align 8, !tbaa !7
  %4 = load ptr, ptr %2, align 8, !tbaa !7
  %5 = getelementptr inbounds nuw %struct.parser_params, ptr %4, i32 0, i32 11
  %6 = load ptr, ptr %5, align 8, !tbaa !176
  %7 = getelementptr inbounds nuw %struct.local_vars, ptr %6, i32 0, i32 0
  %8 = load ptr, ptr %7, align 8, !tbaa !181
  %9 = call ptr @vtable_alloc_gen(ptr noundef %3, i32 noundef 15121, ptr noundef %8)
  %10 = load ptr, ptr %2, align 8, !tbaa !7
  %11 = getelementptr inbounds nuw %struct.parser_params, ptr %10, i32 0, i32 11
  %12 = load ptr, ptr %11, align 8, !tbaa !176
  %13 = getelementptr inbounds nuw %struct.local_vars, ptr %12, i32 0, i32 0
  store ptr %9, ptr %13, align 8, !tbaa !181
  %14 = load ptr, ptr %2, align 8, !tbaa !7
  %15 = load ptr, ptr %2, align 8, !tbaa !7
  %16 = getelementptr inbounds nuw %struct.parser_params, ptr %15, i32 0, i32 11
  %17 = load ptr, ptr %16, align 8, !tbaa !176
  %18 = getelementptr inbounds nuw %struct.local_vars, ptr %17, i32 0, i32 1
  %19 = load ptr, ptr %18, align 8, !tbaa !182
  %20 = call ptr @vtable_alloc_gen(ptr noundef %14, i32 noundef 15122, ptr noundef %19)
  %21 = load ptr, ptr %2, align 8, !tbaa !7
  %22 = getelementptr inbounds nuw %struct.parser_params, ptr %21, i32 0, i32 11
  %23 = load ptr, ptr %22, align 8, !tbaa !176
  %24 = getelementptr inbounds nuw %struct.local_vars, ptr %23, i32 0, i32 1
  store ptr %20, ptr %24, align 8, !tbaa !182
  %25 = load ptr, ptr %2, align 8, !tbaa !7
  %26 = getelementptr inbounds nuw %struct.parser_params, ptr %25, i32 0, i32 11
  %27 = load ptr, ptr %26, align 8, !tbaa !176
  %28 = getelementptr inbounds nuw %struct.local_vars, ptr %27, i32 0, i32 2
  %29 = load ptr, ptr %28, align 8, !tbaa !187
  %30 = icmp ne ptr %29, null
  br i1 %30, label %31, label %43

31:                                               ; preds = %1
  %32 = load ptr, ptr %2, align 8, !tbaa !7
  %33 = load ptr, ptr %2, align 8, !tbaa !7
  %34 = getelementptr inbounds nuw %struct.parser_params, ptr %33, i32 0, i32 11
  %35 = load ptr, ptr %34, align 8, !tbaa !176
  %36 = getelementptr inbounds nuw %struct.local_vars, ptr %35, i32 0, i32 2
  %37 = load ptr, ptr %36, align 8, !tbaa !187
  %38 = call ptr @vtable_alloc_gen(ptr noundef %32, i32 noundef 15124, ptr noundef %37)
  %39 = load ptr, ptr %2, align 8, !tbaa !7
  %40 = getelementptr inbounds nuw %struct.parser_params, ptr %39, i32 0, i32 11
  %41 = load ptr, ptr %40, align 8, !tbaa !176
  %42 = getelementptr inbounds nuw %struct.local_vars, ptr %41, i32 0, i32 2
  store ptr %38, ptr %42, align 8, !tbaa !187
  br label %43

43:                                               ; preds = %31, %1
  %44 = load ptr, ptr %2, align 8, !tbaa !7
  %45 = getelementptr inbounds nuw %struct.parser_params, ptr %44, i32 0, i32 11
  %46 = load ptr, ptr %45, align 8, !tbaa !176
  %47 = getelementptr inbounds nuw %struct.local_vars, ptr %46, i32 0, i32 0
  %48 = load ptr, ptr %47, align 8, !tbaa !181
  ret ptr %48
}