; Function Attrs: nounwind sspstrong uwtable
define internal fastcc ptr @dyna_push(ptr noundef captures(none) %0) unnamed_addr #0 {
  %2 = getelementptr inbounds nuw i8, ptr %0, i64 168
  %3 = load ptr, ptr %2, align 8, !tbaa !100
  %4 = load ptr, ptr %3, align 8, !tbaa !197
  %5 = tail call noalias nonnull dereferenceable(24) ptr @ruby_xmalloc(i64 noundef 24) #38
  %6 = getelementptr inbounds nuw i8, ptr %5, i64 8
  store i32 0, ptr %6, align 8, !tbaa !194
  %7 = getelementptr inbounds nuw i8, ptr %5, i64 12
  store i32 8, ptr %7, align 4, !tbaa !195
  %8 = tail call noalias nonnull dereferenceable(64) ptr @ruby_xmalloc2(i64 noundef 8, i64 noundef 8) #37
  store ptr %8, ptr %5, align 8, !tbaa !196
  %9 = getelementptr inbounds nuw i8, ptr %5, i64 16
  store ptr %4, ptr %9, align 8, !tbaa !149
  %10 = getelementptr inbounds nuw i8, ptr %0, i64 360
  %11 = load i32, ptr %10, align 8
  %12 = and i32 %11, 32
  %.not.i = icmp eq i32 %12, 0
  br i1 %.not.i, label %vtable_alloc_gen.exit, label %13

13:                                               ; preds = %1
  tail call void (ptr, ptr, ...) @rb_parser_printf(ptr noundef nonnull %0, ptr noundef nonnull @.str.931, i32 noundef 15121, ptr noundef nonnull %5)
  br label %vtable_alloc_gen.exit

vtable_alloc_gen.exit:                            ; preds = %1, %13
  %14 = load ptr, ptr %2, align 8, !tbaa !100
  store ptr %5, ptr %14, align 8, !tbaa !197
  %15 = getelementptr inbounds nuw i8, ptr %14, i64 8
  %16 = load ptr, ptr %15, align 8, !tbaa !148
  %17 = tail call noalias nonnull dereferenceable(24) ptr @ruby_xmalloc(i64 noundef 24) #38
  %18 = getelementptr inbounds nuw i8, ptr %17, i64 8
  store i32 0, ptr %18, align 8, !tbaa !194
  %19 = getelementptr inbounds nuw i8, ptr %17, i64 12
  store i32 8, ptr %19, align 4, !tbaa !195
  %20 = tail call noalias nonnull dereferenceable(64) ptr @ruby_xmalloc2(i64 noundef 8, i64 noundef 8) #37
  store ptr %20, ptr %17, align 8, !tbaa !196
  %21 = getelementptr inbounds nuw i8, ptr %17, i64 16
  store ptr %16, ptr %21, align 8, !tbaa !149
  %22 = load i32, ptr %10, align 8
  %23 = and i32 %22, 32
  %.not.i11 = icmp eq i32 %23, 0
  br i1 %.not.i11, label %vtable_alloc_gen.exit12, label %24

24:                                               ; preds = %vtable_alloc_gen.exit
  tail call void (ptr, ptr, ...) @rb_parser_printf(ptr noundef nonnull %0, ptr noundef nonnull @.str.931, i32 noundef 15122, ptr noundef nonnull %17)
  br label %vtable_alloc_gen.exit12

vtable_alloc_gen.exit12:                          ; preds = %vtable_alloc_gen.exit, %24
  %25 = load ptr, ptr %2, align 8, !tbaa !100
  %26 = getelementptr inbounds nuw i8, ptr %25, i64 8
  store ptr %17, ptr %26, align 8, !tbaa !148
  %27 = getelementptr inbounds nuw i8, ptr %25, i64 16
  %28 = load ptr, ptr %27, align 8, !tbaa !198
  %.not = icmp eq ptr %28, null
  br i1 %.not, label %40, label %29

29:                                               ; preds = %vtable_alloc_gen.exit12
  %30 = tail call noalias nonnull dereferenceable(24) ptr @ruby_xmalloc(i64 noundef 24) #38
  %31 = getelementptr inbounds nuw i8, ptr %30, i64 8
  store i32 0, ptr %31, align 8, !tbaa !194
  %32 = getelementptr inbounds nuw i8, ptr %30, i64 12
  store i32 8, ptr %32, align 4, !tbaa !195
  %33 = tail call noalias nonnull dereferenceable(64) ptr @ruby_xmalloc2(i64 noundef 8, i64 noundef 8) #37
  store ptr %33, ptr %30, align 8, !tbaa !196
  %34 = getelementptr inbounds nuw i8, ptr %30, i64 16
  store ptr %28, ptr %34, align 8, !tbaa !149
  %35 = load i32, ptr %10, align 8
  %36 = and i32 %35, 32
  %.not.i13 = icmp eq i32 %36, 0
  br i1 %.not.i13, label %vtable_alloc_gen.exit14, label %37

37:                                               ; preds = %29
  tail call void (ptr, ptr, ...) @rb_parser_printf(ptr noundef nonnull %0, ptr noundef nonnull @.str.931, i32 noundef 15124, ptr noundef nonnull %30)
  br label %vtable_alloc_gen.exit14

vtable_alloc_gen.exit14:                          ; preds = %29, %37
  %38 = load ptr, ptr %2, align 8, !tbaa !100
  %39 = getelementptr inbounds nuw i8, ptr %38, i64 16
  store ptr %30, ptr %39, align 8, !tbaa !198
  br label %40

40:                                               ; preds = %vtable_alloc_gen.exit14, %vtable_alloc_gen.exit12
  %41 = phi ptr [ %38, %vtable_alloc_gen.exit14 ], [ %25, %vtable_alloc_gen.exit12 ]
  %42 = load ptr, ptr %41, align 8, !tbaa !197
  ret ptr %42
}